target datalayout = "e-m:e-p270:32:32-p271:32:32-p272:64:64-i64:64-i128:128-f80:128-n8:16:32:64-S128"
target triple = "x86_64-pc-linux-gnu"

%class.MetaspaceSummary = type { i64, %class.MetaspaceCombinedStats, %class.MetaspaceChunkFreeListSummary, %class.MetaspaceChunkFreeListSummary }
%class.MetaspaceCombinedStats = type { %class.MetaspaceStats, %class.MetaspaceStats, %class.MetaspaceStats }
%class.MetaspaceStats = type { i64, i64, i64 }
%class.MetaspaceChunkFreeListSummary = type { i64, i64, i64, i64, i64, i64, i64, i64 }

; Function Attrs: mustprogress nounwind uwtable
define linkonce_odr hidden void @_ZN29MetaspaceChunkFreeListSummaryC2Emmmmmmmm(ptr noundef nonnull align 8 dereferenceable(64) %0, i64 noundef %1, i64 noundef %2, i64 noundef %3, i64 noundef %4, i64 noundef %5, i64 noundef %6, i64 noundef %7, i64 noundef %8) unnamed_addr #1 comdat align 2 {
  %10 = alloca ptr, align 8
  %11 = alloca i64, align 8
  %12 = alloca i64, align 8
  %13 = alloca i64, align 8
  %14 = alloca i64, align 8
  %15 = alloca i64, align 8
  %16 = alloca i64, align 8
  %17 = alloca i64, align 8
  %18 = alloca i64, align 8
  store ptr %0, ptr %10, align 8
  store i64 %1, ptr %11, align 8
  store i64 %2, ptr %12, align 8
  store i64 %3, ptr %13, align 8
  store i64 %4, ptr %14, align 8
  store i64 %5, ptr %15, align 8
  store i64 %6, ptr %16, align 8
  store i64 %7, ptr %17, align 8
  store i64 %8, ptr %18, align 8
  %19 = load ptr, ptr %10, align 8
  %20 = getelementptr inbounds %class.MetaspaceChunkFreeListSummary, ptr %19, i32 0, i32 0
  %21 = load i64, ptr %11, align 8
  store i64 %21, ptr %20, align 8
  %22 = getelementptr inbounds %class.MetaspaceChunkFreeListSummary, ptr %19, i32 0, i32 1
  %23 = load i64, ptr %12, align 8
  store i64 %23, ptr %22, align 8
  %24 = getelementptr inbounds %class.MetaspaceChunkFreeListSummary, ptr %19, i32 0, i32 2
  %25 = load i64, ptr %13, align 8
  store i64 %25, ptr %24, align 8
  %26 = getelementptr inbounds %class.MetaspaceChunkFreeListSummary, ptr %19, i32 0, i32 3
  %27 = load i64, ptr %14, align 8
  store i64 %27, ptr %26, align 8
  %28 = getelementptr inbounds %class.MetaspaceChunkFreeListSummary, ptr %19, i32 0, i32 4
  %29 = load i64, ptr %15, align 8
  store i64 %29, ptr %28, align 8
  %30 = getelementptr inbounds %class.MetaspaceChunkFreeListSummary, ptr %19, i32 0, i32 5
  %31 = load i64, ptr %16, align 8
  store i64 %31, ptr %30, align 8
  %32 = getelementptr inbounds %class.MetaspaceChunkFreeListSummary, ptr %19, i32 0, i32 6
  %33 = load i64, ptr %17, align 8
  store i64 %33, ptr %32, align 8
  %34 = getelementptr inbounds %class.MetaspaceChunkFreeListSummary, ptr %19, i32 0, i32 7
  %35 = load i64, ptr %18, align 8
  store i64 %35, ptr %34, align 8
  ret void
}

; Function Attrs: mustprogress nounwind uwtable
define linkonce_odr hidden void @_ZN16MetaspaceSummaryC2EmRK22MetaspaceCombinedStatsRK29MetaspaceChunkFreeListSummaryS5_(ptr noundef nonnull align 8 dereferenceable(208) %0, i64 noundef %1, ptr noundef nonnull align 8 dereferenceable(72) %2, ptr noundef nonnull align 8 dereferenceable(64) %3, ptr noundef nonnull align 8 dereferenceable(64) %4) unnamed_addr #1 comdat align 2 {
  %6 = alloca ptr, align 8
  %7 = alloca i64, align 8
  %8 = alloca ptr, align 8
  %9 = alloca ptr, align 8
  %10 = alloca ptr, align 8
  store ptr %0, ptr %6, align 8
  store i64 %1, ptr %7, align 8
  store ptr %2, ptr %8, align 8
  store ptr %3, ptr %9, align 8
  store ptr %4, ptr %10, align 8
  %11 = load ptr, ptr %6, align 8
  %12 = getelementptr inbounds %class.MetaspaceSummary, ptr %11, i32 0, i32 0
  %13 = load i64, ptr %7, align 8
  store i64 %13, ptr %12, align 8
  %14 = getelementptr inbounds %class.MetaspaceSummary, ptr %11, i32 0, i32 1
  %15 = load ptr, ptr %8, align 8
  call void @llvm.memcpy.p0.p0.i64(ptr align 8 %14, ptr align 8 %15, i64 72, i1 false)
  %16 = getelementptr inbounds %class.MetaspaceSummary, ptr %11, i32 0, i32 2
  %17 = load ptr, ptr %9, align 8
  call void @llvm.memcpy.p0.p0.i64(ptr align 8 %16, ptr align 8 %17, i64 64, i1 false)
  %18 = getelementptr inbounds %class.MetaspaceSummary, ptr %11, i32 0, i32 3
  %19 = load ptr, ptr %10, align 8
  call void @llvm.memcpy.p0.p0.i64(ptr align 8 %18, ptr align 8 %19, i64 64, i1 false)
  ret void
}

; Function Attrs: mustprogress nounwind uwtable
define linkonce_odr hidden void @_ZN14MetaspaceUtils23chunk_free_list_summaryEN9Metaspace12MetadataTypeE(ptr dead_on_unwind noalias writable sret(%class.MetaspaceChunkFreeListSummary) align 8 %0, i32 noundef %1) #1 comdat align 2 {
  %3 = alloca i32, align 4
  store i32 %1, ptr %3, align 4
  call void @_ZN29MetaspaceChunkFreeListSummaryC2Emmmmmmmm(ptr noundef nonnull align 8 dereferenceable(64) %0, i64 noundef 0, i64 noundef 0, i64 noundef 0, i64 noundef 0, i64 noundef 0, i64 noundef 0, i64 noundef 0, i64 noundef 0)
  ret void
}

; Function Attrs: mustprogress nounwind uwtable
define hidden void @_ZN13CollectedHeap24create_metaspace_summaryEv(ptr dead_on_unwind noalias writable sret(%class.MetaspaceSummary) align 8 %0, ptr noundef nonnull align 8 dereferenceable(104) %1) #1 align 2 {
  %3 = alloca ptr, align 8
  %4 = alloca ptr, align 8
  %5 = alloca %class.MetaspaceChunkFreeListSummary, align 8
  %6 = alloca ptr, align 8
  %7 = alloca %class.MetaspaceChunkFreeListSummary, align 8
  %8 = alloca %class.MetaspaceCombinedStats, align 8
  store ptr %1, ptr %3, align 8
  call void @_ZN14MetaspaceUtils23chunk_free_list_summaryEN9Metaspace12MetadataTypeE(ptr dead_on_unwind writable sret(%class.MetaspaceChunkFreeListSummary) align 8 %5, i32 noundef 1)
  store ptr %5, ptr %4, align 8
  call void @_ZN14MetaspaceUtils23chunk_free_list_summaryEN9Metaspace12MetadataTypeE(ptr dead_on_unwind writable sret(%class.MetaspaceChunkFreeListSummary) align 8 %7, i32 noundef 0)
  store ptr %7, ptr %6, align 8
  %9 = call noundef i64 @_ZN11MetaspaceGC17capacity_until_GCEv()
  call void @_ZN14MetaspaceUtils23get_combined_statisticsEv(ptr dead_on_unwind writable sret(%class.MetaspaceCombinedStats) align 8 %8)
  %10 = load ptr, ptr %4, align 8
  %11 = load ptr, ptr %6, align 8
  call void @_ZN16MetaspaceSummaryC2EmRK22MetaspaceCombinedStatsRK29MetaspaceChunkFreeListSummaryS5_(ptr noundef nonnull align 8 dereferenceable(208) %0, i64 noundef %9, ptr noundef nonnull align 8 dereferenceable(72) %8, ptr noundef nonnull align 8 dereferenceable(64) %10, ptr noundef nonnull align 8 dereferenceable(64) %11)
  ret void
}