; Function Attrs: mustprogress nounwind uwtable
define hidden void @_ZN13CollectedHeap24create_metaspace_summaryEv(ptr dead_on_unwind noalias nocapture writable writeonly sret(%class.MetaspaceSummary) align 8 %0, ptr nocapture noundef nonnull readnone align 8 dereferenceable(104) %1) local_unnamed_addr #0 align 2 {
  %3 = tail call noundef i64 @_ZN11MetaspaceGC17capacity_until_GCEv() #18
  %4 = getelementptr inbounds i8, ptr %0, i64 8
  tail call void @_ZN14MetaspaceUtils23get_combined_statisticsEv(ptr dead_on_unwind nonnull writable sret(%class.MetaspaceCombinedStats) align 8 %4) #18
  store i64 %3, ptr %0, align 8
  %5 = getelementptr inbounds i8, ptr %0, i64 80
  tail call void @llvm.memset.p0.i64(ptr noundef nonnull align 8 dereferenceable(128) %5, i8 0, i64 128, i1 false)
  ret void
}